; ModuleID = '29/1856.c'
source_filename = "29/1856.c"
target datalayout = "e-m:e-p270:32:32-p271:32:32-p272:64:64-i64:64-f80:128-n8:16:32:64-S128"
target triple = "x86_64-pc-linux-gnu"

@.str = private unnamed_addr constant [3 x i8] c"%d\00", align 1
@.str.1 = private unnamed_addr constant [6 x i8] c"%.3f\0A\00", align 1

; Function Attrs: noinline nounwind uwtable
define dso_local void @main() #0 {
  %1 = alloca i32, align 4
  %2 = alloca i32, align 4
  %3 = alloca i32, align 4
  %4 = alloca i32, align 4
  %5 = alloca i32, align 4
  %6 = alloca i32, align 4
  %7 = alloca double, align 8
  %8 = call i32 (i8*, ...) @__isoc99_scanf(i8* getelementptr inbounds ([3 x i8], [3 x i8]* @.str, i64 0, i64 0), i32* %5)
  br label %9

9:                                                ; preds = %34, %0
  %10 = load i32, i32* %5, align 4
  %11 = icmp sgt i32 %10, 0
  br i1 %11, label %12, label %39

12:                                               ; preds = %9
  %13 = call i32 (i8*, ...) @__isoc99_scanf(i8* getelementptr inbounds ([3 x i8], [3 x i8]* @.str, i64 0, i64 0), i32* %6)
  store double 0.000000e+00, double* %7, align 8
  store i32 1, i32* %1, align 4
  store i32 2, i32* %2, align 4
  store i32 1, i32* %4, align 4
  br label %14

14:                                               ; preds = %31, %12
  %15 = load i32, i32* %4, align 4
  %16 = load i32, i32* %6, align 4
  %17 = icmp sle i32 %15, %16
  br i1 %17, label %18, label %34

18:                                               ; preds = %14
  %19 = load i32, i32* %2, align 4
  %20 = sitofp i32 %19 to double
  %21 = load i32, i32* %1, align 4
  %22 = sitofp i32 %21 to double
  %23 = fdiv double %20, %22
  %24 = load double, double* %7, align 8
  %25 = fadd double %24, %23
  store double %25, double* %7, align 8
  %26 = load i32, i32* %2, align 4
  %27 = load i32, i32* %1, align 4
  %28 = add nsw i32 %26, %27
  store i32 %28, i32* %3, align 4
  %29 = load i32, i32* %2, align 4
  store i32 %29, i32* %1, align 4
  %30 = load i32, i32* %3, align 4
  store i32 %30, i32* %2, align 4
  br label %31

31:                                               ; preds = %18
  %32 = load i32, i32* %4, align 4
  %33 = add nsw i32 %32, 1
  store i32 %33, i32* %4, align 4
  br label %14

34:                                               ; preds = %14
  %35 = load double, double* %7, align 8
  %36 = call i32 (i8*, ...) @printf(i8* getelementptr inbounds ([6 x i8], [6 x i8]* @.str.1, i64 0, i64 0), double %35)
  %37 = load i32, i32* %5, align 4
  %38 = add nsw i32 %37, -1
  store i32 %38, i32* %5, align 4
  br label %9

39:                                               ; preds = %9
  ret void
}

declare dso_local i32 @__isoc99_scanf(i8*, ...) #1

declare dso_local i32 @printf(i8*, ...) #1


!llvm.module.flags = !{!0}
!llvm.ident = !{!1}

!0 = !{i32 1, !"wchar_size", i32 4}
!1 = !{!"clang version 10.0.0-4ubuntu1 "}
